target datalayout = "e-m:e-p270:32:32-p271:32:32-p272:64:64-i64:64-i128:128-f80:128-n8:16:32:64-S128"
target triple = "x86_64-pc-linux-gnu"

%"class.cv::Size_" = type { i32, i32 }
%"class.cv::_InputArray" = type { i32, ptr, %"class.cv::Size_" }
%"class.cv::_OutputArray" = type { %"class.cv::_InputArray" }
%"class.cv::Point_" = type { i32, i32 }
%"class.cv::Scalar_" = type { %"class.cv::Vec.49" }
%"class.cv::Vec.49" = type { %"class.cv::Matx.50" }
%"class.cv::Matx.50" = type { [4 x double] }
%"class.cv::_InputOutputArray" = type { %"class.cv::_OutputArray" }
%"class.cv::Rect_" = type { i32, i32, i32, i32 }

; Function Attrs: inlinehint mustprogress nounwind uwtable
define linkonce_odr hidden void @_ZN2cv5Size_IiEC2Ev(ptr noundef nonnull align 4 dereferenceable(8) %0) unnamed_addr #7 comdat align 2 {
  %2 = alloca ptr, align 8
  store ptr %0, ptr %2, align 8, !tbaa !59
  %3 = load ptr, ptr %2, align 8
  %4 = getelementptr inbounds nuw %"class.cv::Size_", ptr %3, i32 0, i32 0
  store i32 0, ptr %4, align 4, !tbaa !61
  %5 = getelementptr inbounds nuw %"class.cv::Size_", ptr %3, i32 0, i32 1
  store i32 0, ptr %5, align 4, !tbaa !63
  ret void
}

; Function Attrs: inlinehint mustprogress nounwind uwtable
define linkonce_odr hidden void @_ZN2cv4MatxIdLi4ELi1EEC2Ev(ptr noundef nonnull align 8 dereferenceable(32) %0) unnamed_addr #7 comdat align 2 {
  %2 = alloca ptr, align 8
  %3 = alloca i32, align 4
  store ptr %0, ptr %2, align 8, !tbaa !179
  %4 = load ptr, ptr %2, align 8
  call void @llvm.lifetime.start.p0(i64 4, ptr %3) #3
  store i32 0, ptr %3, align 4, !tbaa !13
  br label %5

5:                                                ; preds = %14, %1
  %6 = load i32, ptr %3, align 4, !tbaa !13
  %7 = icmp slt i32 %6, 4
  br i1 %7, label %9, label %8

8:                                                ; preds = %5
  call void @llvm.lifetime.end.p0(i64 4, ptr %3) #3
  br label %17

9:                                                ; preds = %5
  %10 = getelementptr inbounds nuw %"class.cv::Matx.50", ptr %4, i32 0, i32 0
  %11 = load i32, ptr %3, align 4, !tbaa !13
  %12 = sext i32 %11 to i64
  %13 = getelementptr inbounds [4 x double], ptr %10, i64 0, i64 %12
  store double 0.000000e+00, ptr %13, align 8, !tbaa !92
  br label %14

14:                                               ; preds = %9
  %15 = load i32, ptr %3, align 4, !tbaa !13
  %16 = add nsw i32 %15, 1
  store i32 %16, ptr %3, align 4, !tbaa !13
  br label %5, !llvm.loop !181

17:                                               ; preds = %8
  ret void
}

; Function Attrs: inlinehint mustprogress uwtable
define linkonce_odr hidden void @_ZN2cv11_InputArrayC2Ev(ptr noundef nonnull align 8 dereferenceable(24) %0) unnamed_addr #4 comdat align 2 {
  %2 = alloca ptr, align 8
  store ptr %0, ptr %2, align 8, !tbaa !70
  %3 = load ptr, ptr %2, align 8
  %4 = getelementptr inbounds nuw %"class.cv::_InputArray", ptr %3, i32 0, i32 2
  call void @_ZN2cv5Size_IiEC2Ev(ptr noundef nonnull align 4 dereferenceable(8) %4)
  call void @_ZN2cv11_InputArray4initEiPKv(ptr noundef nonnull align 8 dereferenceable(24) %3, i32 noundef 0, ptr noundef null)
  ret void
}

; Function Attrs: inlinehint mustprogress uwtable
define linkonce_odr hidden void @_ZN2cv3VecIdLi4EEC2Ev(ptr noundef nonnull align 8 dereferenceable(32) %0) unnamed_addr #4 comdat align 2 {
  %2 = alloca ptr, align 8
  store ptr %0, ptr %2, align 8, !tbaa !177
  %3 = load ptr, ptr %2, align 8
  call void @_ZN2cv4MatxIdLi4ELi1EEC2Ev(ptr noundef nonnull align 8 dereferenceable(32) %3)
  ret void
}

; Function Attrs: inlinehint mustprogress nounwind uwtable
define linkonce_odr hidden void @_ZN2cv11_InputArray4initEiPKv(ptr noundef nonnull align 8 dereferenceable(24) %0, i32 noundef %1, ptr noundef %2) #7 comdat align 2 {
  %4 = alloca ptr, align 8
  %5 = alloca i32, align 4
  %6 = alloca ptr, align 8
  store ptr %0, ptr %4, align 8, !tbaa !70
  store i32 %1, ptr %5, align 4, !tbaa !13
  store ptr %2, ptr %6, align 8, !tbaa !155
  %7 = load ptr, ptr %4, align 8
  %8 = load i32, ptr %5, align 4, !tbaa !13
  %9 = getelementptr inbounds nuw %"class.cv::_InputArray", ptr %7, i32 0, i32 0
  store i32 %8, ptr %9, align 8, !tbaa !165
  %10 = load ptr, ptr %6, align 8, !tbaa !155
  %11 = getelementptr inbounds nuw %"class.cv::_InputArray", ptr %7, i32 0, i32 1
  store ptr %10, ptr %11, align 8, !tbaa !167
  ret void
}

; Function Attrs: inlinehint mustprogress uwtable
define linkonce_odr hidden void @_ZN2cv12_OutputArrayC2Ev(ptr noundef nonnull align 8 dereferenceable(24) %0) unnamed_addr #4 comdat align 2 {
  %2 = alloca ptr, align 8
  store ptr %0, ptr %2, align 8, !tbaa !74
  %3 = load ptr, ptr %2, align 8
  call void @_ZN2cv11_InputArrayC2Ev(ptr noundef nonnull align 8 dereferenceable(24) %3)
  call void @_ZN2cv11_InputArray4initEiPKv(ptr noundef nonnull align 8 dereferenceable(24) %3, i32 noundef 33554432, ptr noundef null)
  ret void
}

; Function Attrs: inlinehint mustprogress uwtable
define linkonce_odr hidden void @_ZN2cv7Scalar_IdEC2Ev(ptr noundef nonnull align 8 dereferenceable(32) %0) unnamed_addr #4 comdat align 2 {
  %2 = alloca ptr, align 8
  store ptr %0, ptr %2, align 8, !tbaa !168
  %3 = load ptr, ptr %2, align 8
  call void @_ZN2cv3VecIdLi4EEC2Ev(ptr noundef nonnull align 8 dereferenceable(32) %3)
  %4 = getelementptr inbounds nuw %"class.cv::Matx.50", ptr %3, i32 0, i32 0
  %5 = getelementptr inbounds [4 x double], ptr %4, i64 0, i64 3
  store double 0.000000e+00, ptr %5, align 8, !tbaa !92
  %6 = getelementptr inbounds nuw %"class.cv::Matx.50", ptr %3, i32 0, i32 0
  %7 = getelementptr inbounds [4 x double], ptr %6, i64 0, i64 2
  store double 0.000000e+00, ptr %7, align 8, !tbaa !92
  %8 = getelementptr inbounds nuw %"class.cv::Matx.50", ptr %3, i32 0, i32 0
  %9 = getelementptr inbounds [4 x double], ptr %8, i64 0, i64 1
  store double 0.000000e+00, ptr %9, align 8, !tbaa !92
  %10 = getelementptr inbounds nuw %"class.cv::Matx.50", ptr %3, i32 0, i32 0
  %11 = getelementptr inbounds [4 x double], ptr %10, i64 0, i64 0
  store double 0.000000e+00, ptr %11, align 8, !tbaa !92
  ret void
}

; Function Attrs: inlinehint mustprogress nounwind uwtable
define internal noundef nonnull align 4 dereferenceable(8) ptr @_ZN2cvpLIiEERNS_6Point_IT_EES4_RKS3_(ptr noundef nonnull align 4 dereferenceable(8) %0, ptr noundef nonnull align 4 dereferenceable(8) %1) #7 {
  %3 = alloca ptr, align 8
  %4 = alloca ptr, align 8
  store ptr %0, ptr %3, align 8, !tbaa !76
  store ptr %1, ptr %4, align 8, !tbaa !76
  %5 = load ptr, ptr %4, align 8, !tbaa !76
  %6 = getelementptr inbounds nuw %"class.cv::Point_", ptr %5, i32 0, i32 0
  %7 = load i32, ptr %6, align 4, !tbaa !53
  %8 = load ptr, ptr %3, align 8, !tbaa !76
  %9 = getelementptr inbounds nuw %"class.cv::Point_", ptr %8, i32 0, i32 0
  %10 = load i32, ptr %9, align 4, !tbaa !53
  %11 = add nsw i32 %10, %7
  store i32 %11, ptr %9, align 4, !tbaa !53
  %12 = load ptr, ptr %4, align 8, !tbaa !76
  %13 = getelementptr inbounds nuw %"class.cv::Point_", ptr %12, i32 0, i32 1
  %14 = load i32, ptr %13, align 4, !tbaa !51
  %15 = load ptr, ptr %3, align 8, !tbaa !76
  %16 = getelementptr inbounds nuw %"class.cv::Point_", ptr %15, i32 0, i32 1
  %17 = load i32, ptr %16, align 4, !tbaa !51
  %18 = add nsw i32 %17, %14
  store i32 %18, ptr %16, align 4, !tbaa !51
  %19 = load ptr, ptr %3, align 8, !tbaa !76
  ret ptr %19
}

; Function Attrs: inlinehint mustprogress nounwind uwtable
define linkonce_odr hidden void @_ZN2cv6Point_IiEC2Eii(ptr noundef nonnull align 4 dereferenceable(8) %0, i32 noundef %1, i32 noundef %2) unnamed_addr #7 comdat align 2 {
  %4 = alloca ptr, align 8
  %5 = alloca i32, align 4
  %6 = alloca i32, align 4
  store ptr %0, ptr %4, align 8, !tbaa !76
  store i32 %1, ptr %5, align 4, !tbaa !13
  store i32 %2, ptr %6, align 4, !tbaa !13
  %7 = load ptr, ptr %4, align 8
  %8 = getelementptr inbounds nuw %"class.cv::Point_", ptr %7, i32 0, i32 0
  %9 = load i32, ptr %5, align 4, !tbaa !13
  store i32 %9, ptr %8, align 4, !tbaa !53
  %10 = getelementptr inbounds nuw %"class.cv::Point_", ptr %7, i32 0, i32 1
  %11 = load i32, ptr %6, align 4, !tbaa !13
  store i32 %11, ptr %10, align 4, !tbaa !51
  ret void
}

; Function Attrs: inlinehint mustprogress nounwind uwtable
define linkonce_odr hidden void @_ZN2cv11_InputArrayD2Ev(ptr noundef nonnull align 8 dereferenceable(24) %0) unnamed_addr #7 comdat align 2 {
  %2 = alloca ptr, align 8
  store ptr %0, ptr %2, align 8, !tbaa !70
  ret void
}

; Function Attrs: inlinehint mustprogress uwtable
define linkonce_odr hidden void @_ZN2cv7Scalar_IdEC2Ed(ptr noundef nonnull align 8 dereferenceable(32) %0, double noundef %1) unnamed_addr #4 comdat align 2 {
  %3 = alloca ptr, align 8
  %4 = alloca double, align 8
  store ptr %0, ptr %3, align 8, !tbaa !168
  store double %1, ptr %4, align 8, !tbaa !92
  %5 = load ptr, ptr %3, align 8
  call void @_ZN2cv3VecIdLi4EEC2Ev(ptr noundef nonnull align 8 dereferenceable(32) %5)
  %6 = load double, ptr %4, align 8, !tbaa !92
  %7 = getelementptr inbounds nuw %"class.cv::Matx.50", ptr %5, i32 0, i32 0
  %8 = getelementptr inbounds [4 x double], ptr %7, i64 0, i64 0
  store double %6, ptr %8, align 8, !tbaa !92
  %9 = getelementptr inbounds nuw %"class.cv::Matx.50", ptr %5, i32 0, i32 0
  %10 = getelementptr inbounds [4 x double], ptr %9, i64 0, i64 3
  store double 0.000000e+00, ptr %10, align 8, !tbaa !92
  %11 = getelementptr inbounds nuw %"class.cv::Matx.50", ptr %5, i32 0, i32 0
  %12 = getelementptr inbounds [4 x double], ptr %11, i64 0, i64 2
  store double 0.000000e+00, ptr %12, align 8, !tbaa !92
  %13 = getelementptr inbounds nuw %"class.cv::Matx.50", ptr %5, i32 0, i32 0
  %14 = getelementptr inbounds [4 x double], ptr %13, i64 0, i64 1
  store double 0.000000e+00, ptr %14, align 8, !tbaa !92
  ret void
}

; Function Attrs: inlinehint mustprogress nounwind uwtable
define linkonce_odr hidden void @_ZN2cv5Rect_IiEC2ERKNS_6Point_IiEERKNS_5Size_IiEE(ptr noundef nonnull align 4 dereferenceable(16) %0, ptr noundef nonnull align 4 dereferenceable(8) %1, ptr noundef nonnull align 4 dereferenceable(8) %2) unnamed_addr #7 comdat align 2 {
  %4 = alloca ptr, align 8
  %5 = alloca ptr, align 8
  %6 = alloca ptr, align 8
  store ptr %0, ptr %4, align 8, !tbaa !184
  store ptr %1, ptr %5, align 8, !tbaa !76
  store ptr %2, ptr %6, align 8, !tbaa !59
  %7 = load ptr, ptr %4, align 8
  %8 = getelementptr inbounds nuw %"class.cv::Rect_", ptr %7, i32 0, i32 0
  %9 = load ptr, ptr %5, align 8, !tbaa !76
  %10 = getelementptr inbounds nuw %"class.cv::Point_", ptr %9, i32 0, i32 0
  %11 = load i32, ptr %10, align 4, !tbaa !53
  store i32 %11, ptr %8, align 4, !tbaa !185
  %12 = getelementptr inbounds nuw %"class.cv::Rect_", ptr %7, i32 0, i32 1
  %13 = load ptr, ptr %5, align 8, !tbaa !76
  %14 = getelementptr inbounds nuw %"class.cv::Point_", ptr %13, i32 0, i32 1
  %15 = load i32, ptr %14, align 4, !tbaa !51
  store i32 %15, ptr %12, align 4, !tbaa !187
  %16 = getelementptr inbounds nuw %"class.cv::Rect_", ptr %7, i32 0, i32 2
  %17 = load ptr, ptr %6, align 8, !tbaa !59
  %18 = getelementptr inbounds nuw %"class.cv::Size_", ptr %17, i32 0, i32 0
  %19 = load i32, ptr %18, align 4, !tbaa !61
  store i32 %19, ptr %16, align 4, !tbaa !188
  %20 = getelementptr inbounds nuw %"class.cv::Rect_", ptr %7, i32 0, i32 3
  %21 = load ptr, ptr %6, align 8, !tbaa !59
  %22 = getelementptr inbounds nuw %"class.cv::Size_", ptr %21, i32 0, i32 1
  %23 = load i32, ptr %22, align 4, !tbaa !63
  store i32 %23, ptr %20, align 4, !tbaa !189
  ret void
}

; Function Attrs: inlinehint mustprogress nounwind uwtable
define linkonce_odr hidden void @_ZN2cv5Size_IiEC2Eii(ptr noundef nonnull align 4 dereferenceable(8) %0, i32 noundef %1, i32 noundef %2) unnamed_addr #7 comdat align 2 {
  %4 = alloca ptr, align 8
  %5 = alloca i32, align 4
  %6 = alloca i32, align 4
  store ptr %0, ptr %4, align 8, !tbaa !59
  store i32 %1, ptr %5, align 4, !tbaa !13
  store i32 %2, ptr %6, align 4, !tbaa !13
  %7 = load ptr, ptr %4, align 8
  %8 = getelementptr inbounds nuw %"class.cv::Size_", ptr %7, i32 0, i32 0
  %9 = load i32, ptr %5, align 4, !tbaa !13
  store i32 %9, ptr %8, align 4, !tbaa !61
  %10 = getelementptr inbounds nuw %"class.cv::Size_", ptr %7, i32 0, i32 1
  %11 = load i32, ptr %6, align 4, !tbaa !13
  store i32 %11, ptr %10, align 4, !tbaa !63
  ret void
}

; Function Attrs: inlinehint mustprogress uwtable
define linkonce_odr hidden void @_ZN2cv17_InputOutputArrayC2ERNS_3MatE(ptr noundef nonnull align 8 dereferenceable(24) %0, ptr noundef nonnull align 8 dereferenceable(96) %1) unnamed_addr #4 comdat align 2 {
  %3 = alloca ptr, align 8
  %4 = alloca ptr, align 8
  store ptr %0, ptr %3, align 8, !tbaa !182
  store ptr %1, ptr %4, align 8, !tbaa !72
  %5 = load ptr, ptr %3, align 8
  call void @_ZN2cv12_OutputArrayC2Ev(ptr noundef nonnull align 8 dereferenceable(24) %5)
  %6 = load ptr, ptr %4, align 8, !tbaa !72
  call void @_ZN2cv11_InputArray4initEiPKv(ptr noundef nonnull align 8 dereferenceable(24) %5, i32 noundef 50397184, ptr noundef %6)
  ret void
}

; Function Attrs: mustprogress uwtable
define internal void @_ZL19addNestedRectanglesRN2cv3MatENS_6Point_IiEEPiS4_i(ptr noundef nonnull align 8 dereferenceable(96) %0, i64 %1, ptr noundef %2, ptr noundef %3, i32 noundef %4) #9 personality ptr @__gxx_personality_v0 {
  %6 = alloca %"class.cv::Point_", align 4
  %7 = alloca ptr, align 8
  %8 = alloca ptr, align 8
  %9 = alloca ptr, align 8
  %10 = alloca i32, align 4
  %11 = alloca i32, align 4
  %12 = alloca %"class.cv::_InputOutputArray", align 8
  %13 = alloca %"class.cv::Rect_", align 4
  %14 = alloca %"class.cv::Size_", align 4
  %15 = alloca ptr, align 8
  %16 = alloca i32, align 4
  %17 = alloca %"class.cv::Scalar_", align 8
  %18 = alloca %"class.cv::Point_", align 4
  %19 = alloca %"class.cv::_InputOutputArray", align 8
  %20 = alloca %"class.cv::Point_", align 4
  %21 = alloca %"class.cv::Scalar_", align 8
  %22 = alloca %"class.cv::Scalar_", align 8
  %23 = alloca %"class.cv::Scalar_", align 8
  store i64 %1, ptr %6, align 4
  store ptr %0, ptr %7, align 8, !tbaa !72
  store ptr %2, ptr %8, align 8, !tbaa !170
  store ptr %3, ptr %9, align 8, !tbaa !170
  store i32 %4, ptr %10, align 4, !tbaa !13
  call void @llvm.lifetime.start.p0(i64 4, ptr %11) #3
  store i32 0, ptr %11, align 4, !tbaa !13
  br label %24

24:                                               ; preds = %95, %5
  %25 = load i32, ptr %11, align 4, !tbaa !13
  %26 = load i32, ptr %10, align 4, !tbaa !13
  %27 = icmp slt i32 %25, %26
  br i1 %27, label %29, label %28

28:                                               ; preds = %24
  call void @llvm.lifetime.end.p0(i64 4, ptr %11) #3
  br label %112

29:                                               ; preds = %24
  call void @llvm.lifetime.start.p0(i64 24, ptr %12) #3
  %30 = load ptr, ptr %7, align 8, !tbaa !72
  call void @_ZN2cv17_InputOutputArrayC2ERNS_3MatE(ptr noundef nonnull align 8 dereferenceable(24) %12, ptr noundef nonnull align 8 dereferenceable(96) %30)
  call void @llvm.lifetime.start.p0(i64 8, ptr %14) #3
  %31 = load ptr, ptr %8, align 8, !tbaa !170
  %32 = load i32, ptr %11, align 4, !tbaa !13
  %33 = sext i32 %32 to i64
  %34 = getelementptr inbounds i32, ptr %31, i64 %33
  %35 = load i32, ptr %34, align 4, !tbaa !13
  %36 = load ptr, ptr %8, align 8, !tbaa !170
  %37 = load i32, ptr %11, align 4, !tbaa !13
  %38 = sext i32 %37 to i64
  %39 = getelementptr inbounds i32, ptr %36, i64 %38
  %40 = load i32, ptr %39, align 4, !tbaa !13
  invoke void @_ZN2cv5Size_IiEC2Eii(ptr noundef nonnull align 4 dereferenceable(8) %14, i32 noundef %35, i32 noundef %40)
          to label %41 unwind label %98

41:                                               ; preds = %29
  invoke void @_ZN2cv5Rect_IiEC2ERKNS_6Point_IiEERKNS_5Size_IiEE(ptr noundef nonnull align 4 dereferenceable(16) %13, ptr noundef nonnull align 4 dereferenceable(8) %6, ptr noundef nonnull align 4 dereferenceable(8) %14)
          to label %42 unwind label %98

42:                                               ; preds = %41
  call void @llvm.lifetime.start.p0(i64 32, ptr %17) #3
  %43 = load ptr, ptr %9, align 8, !tbaa !170
  %44 = load i32, ptr %11, align 4, !tbaa !13
  %45 = sext i32 %44 to i64
  %46 = getelementptr inbounds i32, ptr %43, i64 %45
  %47 = load i32, ptr %46, align 4, !tbaa !13
  %48 = sitofp i32 %47 to double
  invoke void @_ZN2cv7Scalar_IdEC2Ed(ptr noundef nonnull align 8 dereferenceable(32) %17, double noundef %48)
          to label %49 unwind label %102

49:                                               ; preds = %42
  %50 = getelementptr inbounds nuw { i64, i64 }, ptr %13, i32 0, i32 0
  %51 = load i64, ptr %50, align 4
  %52 = getelementptr inbounds nuw { i64, i64 }, ptr %13, i32 0, i32 1
  %53 = load i64, ptr %52, align 4
  invoke void @_ZN2cv9rectangleERKNS_17_InputOutputArrayENS_5Rect_IiEERKNS_7Scalar_IdEEiii(ptr noundef nonnull align 8 dereferenceable(24) %12, i64 %51, i64 %53, ptr noundef nonnull align 8 dereferenceable(32) %17, i32 noundef 1, i32 noundef 8, i32 noundef 0)
          to label %54 unwind label %102

54:                                               ; preds = %49
  call void @llvm.lifetime.end.p0(i64 32, ptr %17) #3
  call void @llvm.lifetime.end.p0(i64 8, ptr %14) #3
  call void @_ZN2cv11_InputArrayD2Ev(ptr noundef nonnull align 8 dereferenceable(24) %12) #3
  call void @llvm.lifetime.end.p0(i64 24, ptr %12) #3
  call void @llvm.lifetime.start.p0(i64 8, ptr %18) #3
  %55 = load ptr, ptr %8, align 8, !tbaa !170
  %56 = load i32, ptr %11, align 4, !tbaa !13
  %57 = sext i32 %56 to i64
  %58 = getelementptr inbounds i32, ptr %55, i64 %57
  %59 = load i32, ptr %58, align 4, !tbaa !13
  %60 = load ptr, ptr %8, align 8, !tbaa !170
  %61 = load i32, ptr %11, align 4, !tbaa !13
  %62 = add nsw i32 %61, 1
  %63 = sext i32 %62 to i64
  %64 = getelementptr inbounds i32, ptr %60, i64 %63
  %65 = load i32, ptr %64, align 4, !tbaa !13
  %66 = sub nsw i32 %59, %65
  %67 = sdiv i32 %66, 2
  %68 = load ptr, ptr %8, align 8, !tbaa !170
  %69 = load i32, ptr %11, align 4, !tbaa !13
  %70 = sext i32 %69 to i64
  %71 = getelementptr inbounds i32, ptr %68, i64 %70
  %72 = load i32, ptr %71, align 4, !tbaa !13
  %73 = load ptr, ptr %8, align 8, !tbaa !170
  %74 = load i32, ptr %11, align 4, !tbaa !13
  %75 = add nsw i32 %74, 1
  %76 = sext i32 %75 to i64
  %77 = getelementptr inbounds i32, ptr %73, i64 %76
  %78 = load i32, ptr %77, align 4, !tbaa !13
  %79 = sub nsw i32 %72, %78
  %80 = sdiv i32 %79, 2
  call void @_ZN2cv6Point_IiEC2Eii(ptr noundef nonnull align 4 dereferenceable(8) %18, i32 noundef %67, i32 noundef %80)
  %81 = call noundef nonnull align 4 dereferenceable(8) ptr @_ZN2cvpLIiEERNS_6Point_IT_EES4_RKS3_(ptr noundef nonnull align 4 dereferenceable(8) %6, ptr noundef nonnull align 4 dereferenceable(8) %18)
  call void @llvm.lifetime.end.p0(i64 8, ptr %18) #3
  call void @llvm.lifetime.start.p0(i64 24, ptr %19) #3
  %82 = load ptr, ptr %7, align 8, !tbaa !72
  call void @_ZN2cv17_InputOutputArrayC2ERNS_3MatE(ptr noundef nonnull align 8 dereferenceable(24) %19, ptr noundef nonnull align 8 dereferenceable(96) %82)
  call void @llvm.memcpy.p0.p0.i64(ptr align 4 %20, ptr align 4 %6, i64 8, i1 false), !tbaa.struct !18
  %83 = load ptr, ptr %9, align 8, !tbaa !170
  %84 = load i32, ptr %11, align 4, !tbaa !13
  %85 = sext i32 %84 to i64
  %86 = getelementptr inbounds i32, ptr %83, i64 %85
  %87 = load i32, ptr %86, align 4, !tbaa !13
  %88 = sitofp i32 %87 to double
  invoke void @_ZN2cv7Scalar_IdEC2Ed(ptr noundef nonnull align 8 dereferenceable(32) %21, double noundef %88)
          to label %89 unwind label %107

89:                                               ; preds = %54
  invoke void @_ZN2cv7Scalar_IdEC2Ev(ptr noundef nonnull align 8 dereferenceable(32) %22)
          to label %90 unwind label %107

90:                                               ; preds = %89
  invoke void @_ZN2cv7Scalar_IdEC2Ev(ptr noundef nonnull align 8 dereferenceable(32) %23)
          to label %91 unwind label %107

91:                                               ; preds = %90
  %92 = load i64, ptr %20, align 4
  %93 = invoke noundef i32 @_ZN2cv9floodFillERKNS_17_InputOutputArrayENS_6Point_IiEENS_7Scalar_IdEEPNS_5Rect_IiEES6_S6_i(ptr noundef nonnull align 8 dereferenceable(24) %19, i64 %92, ptr noundef %21, ptr noundef null, ptr noundef %22, ptr noundef %23, i32 noundef 4)
          to label %94 unwind label %107

94:                                               ; preds = %91
  call void @_ZN2cv11_InputArrayD2Ev(ptr noundef nonnull align 8 dereferenceable(24) %19) #3
  call void @llvm.lifetime.end.p0(i64 24, ptr %19) #3
  br label %95

95:                                               ; preds = %94
  %96 = load i32, ptr %11, align 4, !tbaa !13
  %97 = add nsw i32 %96, 1
  store i32 %97, ptr %11, align 4, !tbaa !13
  br label %24, !llvm.loop !171

98:                                               ; preds = %41, %29
  %99 = landingpad { ptr, i32 }
          cleanup
  %100 = extractvalue { ptr, i32 } %99, 0
  store ptr %100, ptr %15, align 8
  %101 = extractvalue { ptr, i32 } %99, 1
  store i32 %101, ptr %16, align 4
  br label %106

102:                                              ; preds = %49, %42
  %103 = landingpad { ptr, i32 }
          cleanup
  %104 = extractvalue { ptr, i32 } %103, 0
  store ptr %104, ptr %15, align 8
  %105 = extractvalue { ptr, i32 } %103, 1
  store i32 %105, ptr %16, align 4
  call void @llvm.lifetime.end.p0(i64 32, ptr %17) #3
  br label %106

106:                                              ; preds = %102, %98
  call void @llvm.lifetime.end.p0(i64 8, ptr %14) #3
  call void @_ZN2cv11_InputArrayD2Ev(ptr noundef nonnull align 8 dereferenceable(24) %12) #3
  call void @llvm.lifetime.end.p0(i64 24, ptr %12) #3
  br label %111

107:                                              ; preds = %91, %90, %89, %54
  %108 = landingpad { ptr, i32 }
          cleanup
  %109 = extractvalue { ptr, i32 } %108, 0
  store ptr %109, ptr %15, align 8
  %110 = extractvalue { ptr, i32 } %108, 1
  store i32 %110, ptr %16, align 4
  call void @_ZN2cv11_InputArrayD2Ev(ptr noundef nonnull align 8 dereferenceable(24) %19) #3
  call void @llvm.lifetime.end.p0(i64 24, ptr %19) #3
  br label %111

111:                                              ; preds = %107, %106
  call void @llvm.lifetime.end.p0(i64 4, ptr %11) #3
  br label %113

112:                                              ; preds = %28
  ret void

113:                                              ; preds = %111
  %114 = load ptr, ptr %15, align 8
  %115 = load i32, ptr %16, align 4
  %116 = insertvalue { ptr, i32 } poison, ptr %114, 0
  %117 = insertvalue { ptr, i32 } %116, i32 %115, 1
  resume { ptr, i32 } %117
}