; Function Attrs: mustprogress norecurse uwtable
define internal fastcc void @_ZL19addNestedRectanglesRN2cv3MatENS_6Point_IiEEPiS4_i(ptr noundef nonnull align 8 dereferenceable(96) %0, i64 %1, ptr noundef nonnull readonly captures(none) %2, ptr noundef nonnull readonly captures(none) %3) unnamed_addr #3 personality ptr @__gxx_personality_v0 {
  %5 = alloca %"class.cv::_InputOutputArray", align 8
  %6 = alloca %"class.cv::Scalar_", align 8
  %7 = alloca %"class.cv::_InputOutputArray", align 8
  %8 = alloca %"class.cv::Scalar_", align 8
  %9 = alloca %"class.cv::Scalar_", align 8
  %10 = alloca %"class.cv::Scalar_", align 8
  %.sroa.029.0.extract.trunc = trunc i64 %1 to i32
  %.sroa.531.0.extract.shift = lshr i64 %1, 32
  %.sroa.531.0.extract.trunc = trunc nuw i64 %.sroa.531.0.extract.shift to i32
  %11 = getelementptr inbounds nuw i8, ptr %5, i64 8
  %12 = getelementptr inbounds nuw i8, ptr %5, i64 16
  %13 = getelementptr inbounds nuw i8, ptr %6, i64 8
  %14 = getelementptr inbounds nuw i8, ptr %7, i64 8
  %15 = getelementptr inbounds nuw i8, ptr %7, i64 16
  %16 = getelementptr inbounds nuw i8, ptr %8, i64 8
  br label %18

17:                                               ; preds = %18
  ret void

18:                                               ; preds = %4, %18
  %indvars.iv = phi i64 [ 0, %4 ], [ %indvars.iv.next, %18 ]
  %.sroa.531.034 = phi i32 [ %.sroa.531.0.extract.trunc, %4 ], [ %30, %18 ]
  %.sroa.029.033 = phi i32 [ %.sroa.029.0.extract.trunc, %4 ], [ %29, %18 ]
  call void @llvm.lifetime.start.p0(i64 24, ptr nonnull %5) #23
  store i64 0, ptr %12, align 8
  store i32 50397184, ptr %5, align 8, !tbaa !35
  store ptr %0, ptr %11, align 8, !tbaa !37
  %19 = getelementptr inbounds nuw i32, ptr %2, i64 %indvars.iv
  %20 = load i32, ptr %19, align 4, !tbaa !41
  call void @llvm.lifetime.start.p0(i64 32, ptr nonnull %6) #23
  %21 = getelementptr inbounds nuw i32, ptr %3, i64 %indvars.iv
  %22 = load i32, ptr %21, align 4, !tbaa !41
  %23 = sitofp i32 %22 to double
  store double %23, ptr %6, align 8, !tbaa !42
  call void @llvm.memset.p0.i64(ptr noundef nonnull align 8 dereferenceable(24) %13, i8 0, i64 24, i1 false)
  %.sroa.2.0.insert.ext = zext i32 %.sroa.531.034 to i64
  %.sroa.2.0.insert.shift = shl nuw i64 %.sroa.2.0.insert.ext, 32
  %.sroa.027.0.insert.ext = zext i32 %.sroa.029.033 to i64
  %.sroa.027.0.insert.insert = or disjoint i64 %.sroa.2.0.insert.shift, %.sroa.027.0.insert.ext
  %.sroa.528.8.insert.ext = zext i32 %20 to i64
  %.sroa.528.8.insert.shift = shl nuw i64 %.sroa.528.8.insert.ext, 32
  %.sroa.3.8.insert.insert = or disjoint i64 %.sroa.528.8.insert.shift, %.sroa.528.8.insert.ext
  call void @_ZN2cv9rectangleERKNS_17_InputOutputArrayENS_5Rect_IiEERKNS_7Scalar_IdEEiii(ptr noundef nonnull align 8 dereferenceable(24) %5, i64 %.sroa.027.0.insert.insert, i64 %.sroa.3.8.insert.insert, ptr noundef nonnull align 8 dereferenceable(32) %6, i32 noundef 1, i32 noundef 8, i32 noundef 0)
  call void @llvm.lifetime.end.p0(i64 32, ptr nonnull %6) #23
  call void @llvm.lifetime.end.p0(i64 24, ptr nonnull %5) #23
  %24 = load i32, ptr %19, align 4, !tbaa !41
  %indvars.iv.next = add nuw nsw i64 %indvars.iv, 1
  %25 = getelementptr inbounds nuw i32, ptr %2, i64 %indvars.iv.next
  %26 = load i32, ptr %25, align 4, !tbaa !41
  %27 = sub nsw i32 %24, %26
  %28 = sdiv i32 %27, 2
  %29 = add nsw i32 %28, %.sroa.029.033
  %30 = add nsw i32 %28, %.sroa.531.034
  call void @llvm.lifetime.start.p0(i64 24, ptr nonnull %7) #23
  store i64 0, ptr %15, align 8
  store i32 50397184, ptr %7, align 8, !tbaa !35
  store ptr %0, ptr %14, align 8, !tbaa !37
  %.sroa.531.0.insert.ext = zext i32 %30 to i64
  %.sroa.531.0.insert.shift = shl nuw i64 %.sroa.531.0.insert.ext, 32
  %.sroa.029.0.insert.ext = zext i32 %29 to i64
  %.sroa.029.0.insert.insert = or disjoint i64 %.sroa.531.0.insert.shift, %.sroa.029.0.insert.ext
  %31 = load i32, ptr %21, align 4, !tbaa !41
  %32 = sitofp i32 %31 to double
  store double %32, ptr %8, align 8, !tbaa !42
  call void @llvm.memset.p0.i64(ptr noundef nonnull align 8 dereferenceable(24) %16, i8 0, i64 24, i1 false)
  call void @llvm.memset.p0.i64(ptr noundef nonnull align 8 dereferenceable(32) %9, i8 0, i64 32, i1 false)
  call void @llvm.memset.p0.i64(ptr noundef nonnull align 8 dereferenceable(32) %10, i8 0, i64 32, i1 false)
  %33 = call noundef i32 @_ZN2cv9floodFillERKNS_17_InputOutputArrayENS_6Point_IiEENS_7Scalar_IdEEPNS_5Rect_IiEES6_S6_i(ptr noundef nonnull align 8 dereferenceable(24) %7, i64 %.sroa.029.0.insert.insert, ptr noundef nonnull %8, ptr noundef null, ptr noundef nonnull %9, ptr noundef nonnull %10, i32 noundef 4)
  call void @llvm.lifetime.end.p0(i64 24, ptr nonnull %7) #23
  %exitcond.not = icmp eq i64 %indvars.iv.next, 13
  br i1 %exitcond.not, label %17, label %18, !llvm.loop !166
}